target datalayout = "e-m:e-p270:32:32-p271:32:32-p272:64:64-i64:64-i128:128-f80:128-n8:16:32:64-S128"
target triple = "x86_64-pc-linux-gnu"

%"class.zxing::Ref" = type { ptr }
%"class.zxing::FastWindowBinarizer" = type { %"class.zxing::GlobalHistogramBinarizer.base", %"class.zxing::Ref.0", %"class.zxing::Ref.2", ptr, ptr, ptr, ptr, ptr }
%"class.zxing::GlobalHistogramBinarizer.base" = type <{ %"class.zxing::Binarizer", %"class.zxing::ArrayRef", %"class.zxing::ArrayRef.1", i8 }>
%"class.zxing::Binarizer" = type { %"class.zxing::Counted.base", %"class.zxing::Ref", i8, i8, i32, i32, i32, i32, %"class.zxing::Ref.0", %"class.zxing::Ref.0", %"class.zxing::Ref.0" }
%"class.zxing::Counted.base" = type <{ ptr, i32 }>
%"class.zxing::ArrayRef" = type { %"class.zxing::Counted.base", ptr }
%"class.zxing::ArrayRef.1" = type { %"class.zxing::Counted.base", ptr }
%"class.zxing::Ref.0" = type { ptr }
%"class.zxing::Ref.2" = type { ptr }
%"class.zxing::Counted" = type <{ ptr, i32, [4 x i8] }>

; Function Attrs: mustprogress nounwind uwtable
define linkonce_odr hidden void @_ZN5zxing7Counted7releaseEv(ptr noundef nonnull align 8 dereferenceable(12) %0) #2 comdat align 2 {
  %2 = alloca ptr, align 8
  store ptr %0, ptr %2, align 8, !tbaa !99
  %3 = load ptr, ptr %2, align 8
  %4 = getelementptr inbounds nuw %"class.zxing::Counted", ptr %3, i32 0, i32 1
  %5 = load i32, ptr %4, align 8, !tbaa !101
  %6 = add i32 %5, -1
  store i32 %6, ptr %4, align 8, !tbaa !101
  %7 = getelementptr inbounds nuw %"class.zxing::Counted", ptr %3, i32 0, i32 1
  %8 = load i32, ptr %7, align 8, !tbaa !101
  %9 = icmp eq i32 %8, 0
  br i1 %9, label %10, label %18

10:                                               ; preds = %1
  %11 = getelementptr inbounds nuw %"class.zxing::Counted", ptr %3, i32 0, i32 1
  store i32 -559026175, ptr %11, align 8, !tbaa !101
  %12 = icmp eq ptr %3, null
  br i1 %12, label %17, label %13

13:                                               ; preds = %10
  %14 = load ptr, ptr %3, align 8, !tbaa !10
  %15 = getelementptr inbounds ptr, ptr %14, i64 1
  %16 = load ptr, ptr %15, align 8
  call void %16(ptr noundef nonnull align 8 dereferenceable(12) %3) #9
  br label %17

17:                                               ; preds = %13, %10
  br label %18

18:                                               ; preds = %17, %1
  ret void
}

; Function Attrs: mustprogress nounwind uwtable
define linkonce_odr hidden void @_ZN5zxing3RefINS_9BitMatrixEED2Ev(ptr noundef nonnull align 8 dereferenceable(8) %0) unnamed_addr #2 comdat align 2 {
  %2 = alloca ptr, align 8
  store ptr %0, ptr %2, align 8, !tbaa !38
  %3 = load ptr, ptr %2, align 8
  %4 = getelementptr inbounds nuw %"class.zxing::Ref.0", ptr %3, i32 0, i32 0
  %5 = load ptr, ptr %4, align 8, !tbaa !41
  %6 = icmp ne ptr %5, null
  br i1 %6, label %7, label %10

7:                                                ; preds = %1
  %8 = getelementptr inbounds nuw %"class.zxing::Ref.0", ptr %3, i32 0, i32 0
  %9 = load ptr, ptr %8, align 8, !tbaa !41
  call void @_ZN5zxing7Counted7releaseEv(ptr noundef nonnull align 8 dereferenceable(12) %9)
  br label %10

10:                                               ; preds = %7, %1
  ret void
}

; Function Attrs: mustprogress nounwind uwtable
define linkonce_odr hidden void @_ZN5zxing3RefINS_8BitArrayEED2Ev(ptr noundef nonnull align 8 dereferenceable(8) %0) unnamed_addr #2 comdat align 2 {
  %2 = alloca ptr, align 8
  store ptr %0, ptr %2, align 8, !tbaa !42
  %3 = load ptr, ptr %2, align 8
  %4 = getelementptr inbounds nuw %"class.zxing::Ref.2", ptr %3, i32 0, i32 0
  %5 = load ptr, ptr %4, align 8, !tbaa !45
  %6 = icmp ne ptr %5, null
  br i1 %6, label %7, label %10

7:                                                ; preds = %1
  %8 = getelementptr inbounds nuw %"class.zxing::Ref.2", ptr %3, i32 0, i32 0
  %9 = load ptr, ptr %8, align 8, !tbaa !45
  call void @_ZN5zxing7Counted7releaseEv(ptr noundef nonnull align 8 dereferenceable(12) %9)
  br label %10

10:                                               ; preds = %7, %1
  ret void
}

; Function Attrs: mustprogress nounwind uwtable
define hidden void @_ZN5zxing19FastWindowBinarizerD2Ev(ptr noundef nonnull align 8 dereferenceable(184) %0) unnamed_addr #2 align 2 {
  %2 = alloca ptr, align 8
  store ptr %0, ptr %2, align 8, !tbaa !3
  %3 = load ptr, ptr %2, align 8
  store ptr getelementptr inbounds inrange(-16, 48) ({ [8 x ptr] }, ptr @_ZTVN5zxing19FastWindowBinarizerE, i32 0, i32 0, i32 2), ptr %3, align 8, !tbaa !10
  %4 = getelementptr inbounds nuw %"class.zxing::FastWindowBinarizer", ptr %3, i32 0, i32 5
  %5 = load ptr, ptr %4, align 8, !tbaa !34
  %6 = icmp eq ptr %5, null
  br i1 %6, label %8, label %7

7:                                                ; preds = %1
  call void @_ZdaPv(ptr noundef %5) #11
  br label %8

8:                                                ; preds = %7, %1
  %9 = getelementptr inbounds nuw %"class.zxing::FastWindowBinarizer", ptr %3, i32 0, i32 4
  %10 = load ptr, ptr %9, align 8, !tbaa !33
  %11 = icmp eq ptr %10, null
  br i1 %11, label %13, label %12

12:                                               ; preds = %8
  call void @_ZdaPv(ptr noundef %10) #11
  br label %13

13:                                               ; preds = %12, %8
  %14 = getelementptr inbounds nuw %"class.zxing::FastWindowBinarizer", ptr %3, i32 0, i32 3
  %15 = load ptr, ptr %14, align 8, !tbaa !23
  %16 = icmp eq ptr %15, null
  br i1 %16, label %18, label %17

17:                                               ; preds = %13
  call void @_ZdaPv(ptr noundef %15) #11
  br label %18

18:                                               ; preds = %17, %13
  %19 = getelementptr inbounds nuw %"class.zxing::FastWindowBinarizer", ptr %3, i32 0, i32 6
  %20 = load ptr, ptr %19, align 8, !tbaa !35
  %21 = icmp eq ptr %20, null
  br i1 %21, label %23, label %22

22:                                               ; preds = %18
  call void @_ZdaPv(ptr noundef %20) #11
  br label %23

23:                                               ; preds = %22, %18
  %24 = getelementptr inbounds nuw %"class.zxing::FastWindowBinarizer", ptr %3, i32 0, i32 7
  %25 = load ptr, ptr %24, align 8, !tbaa !36
  %26 = icmp eq ptr %25, null
  br i1 %26, label %28, label %27

27:                                               ; preds = %23
  call void @_ZdaPv(ptr noundef %25) #11
  br label %28

28:                                               ; preds = %27, %23
  %29 = getelementptr inbounds nuw %"class.zxing::FastWindowBinarizer", ptr %3, i32 0, i32 2
  call void @_ZN5zxing3RefINS_8BitArrayEED2Ev(ptr noundef nonnull align 8 dereferenceable(8) %29) #9
  %30 = getelementptr inbounds nuw %"class.zxing::FastWindowBinarizer", ptr %3, i32 0, i32 1
  call void @_ZN5zxing3RefINS_9BitMatrixEED2Ev(ptr noundef nonnull align 8 dereferenceable(8) %30) #9
  call void @_ZN5zxing24GlobalHistogramBinarizerD2Ev(ptr noundef nonnull align 8 dereferenceable(121) %3) #9
  ret void
}