; Function Attrs: mustprogress nounwind uwtable
define hidden void @_ZN5zxing19FastWindowBinarizerD2Ev(ptr noundef nonnull align 8 dereferenceable(184) initializes((0, 8)) %0) unnamed_addr #5 align 2 {
  store ptr getelementptr inbounds nuw inrange(-16, 48) (i8, ptr @_ZTVN5zxing19FastWindowBinarizerE, i64 16), ptr %0, align 8, !tbaa !12
  %2 = getelementptr inbounds nuw i8, ptr %0, i64 160
  %3 = load ptr, ptr %2, align 8, !tbaa !34
  %4 = icmp eq ptr %3, null
  br i1 %4, label %6, label %5

5:                                                ; preds = %1
  tail call void @_ZdaPv(ptr noundef nonnull %3) #13
  br label %6

6:                                                ; preds = %5, %1
  %7 = getelementptr inbounds nuw i8, ptr %0, i64 152
  %8 = load ptr, ptr %7, align 8, !tbaa !33
  %9 = icmp eq ptr %8, null
  br i1 %9, label %11, label %10

10:                                               ; preds = %6
  tail call void @_ZdaPv(ptr noundef nonnull %8) #13
  br label %11

11:                                               ; preds = %10, %6
  %12 = getelementptr inbounds nuw i8, ptr %0, i64 144
  %13 = load ptr, ptr %12, align 8, !tbaa !23
  %14 = icmp eq ptr %13, null
  br i1 %14, label %16, label %15

15:                                               ; preds = %11
  tail call void @_ZdaPv(ptr noundef nonnull %13) #13
  br label %16

16:                                               ; preds = %15, %11
  %17 = getelementptr inbounds nuw i8, ptr %0, i64 168
  %18 = load ptr, ptr %17, align 8, !tbaa !35
  %19 = icmp eq ptr %18, null
  br i1 %19, label %21, label %20

20:                                               ; preds = %16
  tail call void @_ZdaPv(ptr noundef nonnull %18) #13
  br label %21

21:                                               ; preds = %20, %16
  %22 = getelementptr inbounds nuw i8, ptr %0, i64 176
  %23 = load ptr, ptr %22, align 8, !tbaa !36
  %24 = icmp eq ptr %23, null
  br i1 %24, label %26, label %25

25:                                               ; preds = %21
  tail call void @_ZdaPv(ptr noundef nonnull %23) #13
  br label %26

26:                                               ; preds = %25, %21
  %27 = getelementptr inbounds nuw i8, ptr %0, i64 136
  %28 = load ptr, ptr %27, align 8, !tbaa !37
  %.not.i = icmp eq ptr %28, null
  br i1 %.not.i, label %_ZN5zxing3RefINS_8BitArrayEED2Ev.exit, label %29

29:                                               ; preds = %26
  %30 = getelementptr inbounds nuw i8, ptr %28, i64 8
  %31 = load i32, ptr %30, align 8, !tbaa !9
  %32 = add i32 %31, -1
  store i32 %32, ptr %30, align 8, !tbaa !9
  %33 = icmp eq i32 %32, 0
  br i1 %33, label %34, label %_ZN5zxing3RefINS_8BitArrayEED2Ev.exit

34:                                               ; preds = %29
  store i32 -559026175, ptr %30, align 8, !tbaa !9
  %35 = load ptr, ptr %28, align 8, !tbaa !12
  %36 = getelementptr inbounds nuw i8, ptr %35, i64 8
  %37 = load ptr, ptr %36, align 8
  tail call void %37(ptr noundef nonnull align 8 dereferenceable(12) %28) #11
  br label %_ZN5zxing3RefINS_8BitArrayEED2Ev.exit

_ZN5zxing3RefINS_8BitArrayEED2Ev.exit:            ; preds = %26, %29, %34
  %38 = getelementptr inbounds nuw i8, ptr %0, i64 128
  %39 = load ptr, ptr %38, align 8, !tbaa !38
  %.not.i5 = icmp eq ptr %39, null
  br i1 %.not.i5, label %_ZN5zxing3RefINS_9BitMatrixEED2Ev.exit, label %40

40:                                               ; preds = %_ZN5zxing3RefINS_8BitArrayEED2Ev.exit
  %41 = getelementptr inbounds nuw i8, ptr %39, i64 8
  %42 = load i32, ptr %41, align 8, !tbaa !9
  %43 = add i32 %42, -1
  store i32 %43, ptr %41, align 8, !tbaa !9
  %44 = icmp eq i32 %43, 0
  br i1 %44, label %45, label %_ZN5zxing3RefINS_9BitMatrixEED2Ev.exit

45:                                               ; preds = %40
  store i32 -559026175, ptr %41, align 8, !tbaa !9
  %46 = load ptr, ptr %39, align 8, !tbaa !12
  %47 = getelementptr inbounds nuw i8, ptr %46, i64 8
  %48 = load ptr, ptr %47, align 8
  tail call void %48(ptr noundef nonnull align 8 dereferenceable(12) %39) #11
  br label %_ZN5zxing3RefINS_9BitMatrixEED2Ev.exit

_ZN5zxing3RefINS_9BitMatrixEED2Ev.exit:           ; preds = %_ZN5zxing3RefINS_8BitArrayEED2Ev.exit, %40, %45
  tail call void @_ZN5zxing24GlobalHistogramBinarizerD2Ev(ptr noundef nonnull align 8 dereferenceable(121) %0) #11
  ret void
}